; Function Attrs: mustprogress nounwind uwtable
define noundef nonnull align 8 dereferenceable(33) ptr @_ZN4toml2v314path_componentaSEm(ptr noundef nonnull returned align 8 captures(address, ret: address, provenance) dereferenceable(33) %0, i64 noundef %1) local_unnamed_addr #8 align 2 personality ptr @__gxx_personality_v0 {
  %3 = getelementptr inbounds nuw i8, ptr %0, i64 32
  %4 = load i8, ptr %3, align 8, !tbaa !184
  %5 = icmp eq i8 %4, 1
  br i1 %5, label %6, label %_ZN4toml2v314path_component7destroyEv.exit

6:                                                ; preds = %2
  %7 = load ptr, ptr %0, align 8, !tbaa !3
  %8 = getelementptr inbounds nuw i8, ptr %0, i64 16
  %9 = icmp eq ptr %7, %8
  br i1 %9, label %_ZNKSt7__cxx1112basic_stringIcSt11char_traitsIcESaIcEE11_M_is_localEv.exit.thread.i.i.i, label %_ZNKSt7__cxx1112basic_stringIcSt11char_traitsIcESaIcEE11_M_is_localEv.exit.i.i.i

_ZNKSt7__cxx1112basic_stringIcSt11char_traitsIcESaIcEE11_M_is_localEv.exit.thread.i.i.i: ; preds = %6
  %10 = getelementptr inbounds nuw i8, ptr %0, i64 8
  %11 = load i64, ptr %10, align 8, !tbaa !11
  %12 = icmp ult i64 %11, 16
  tail call void @llvm.assume(i1 %12)
  br label %_ZN4toml2v314path_component7destroyEv.exit

_ZNKSt7__cxx1112basic_stringIcSt11char_traitsIcESaIcEE11_M_is_localEv.exit.i.i.i: ; preds = %6
  %13 = load i64, ptr %8, align 8, !tbaa !15
  %14 = add i64 %13, 1
  tail call void @_ZdlPvm(ptr noundef %7, i64 noundef %14) #51
  br label %_ZN4toml2v314path_component7destroyEv.exit

_ZN4toml2v314path_component7destroyEv.exit:       ; preds = %2, %_ZNKSt7__cxx1112basic_stringIcSt11char_traitsIcESaIcEE11_M_is_localEv.exit.thread.i.i.i, %_ZNKSt7__cxx1112basic_stringIcSt11char_traitsIcESaIcEE11_M_is_localEv.exit.i.i.i
  store i8 2, ptr %3, align 8, !tbaa !184
  store i64 %1, ptr %0, align 8, !tbaa !114
  ret ptr %0
}